target datalayout = "e-m:e-p270:32:32-p271:32:32-p272:64:64-i64:64-i128:128-f80:128-n8:16:32:64-S128"
target triple = "x86_64-pc-linux-gnu"

%struct.If_Grp_t_ = type { i8, i8, [16 x i8] }

; Function Attrs: inlinehint nounwind uwtable
define internal i32 @If_CluWordNum(i32 noundef %0) #3 {
  %2 = alloca i32, align 4
  store i32 %0, ptr %2, align 4, !tbaa !3
  %3 = load i32, ptr %2, align 4, !tbaa !3
  %4 = icmp sle i32 %3, 6
  br i1 %4, label %5, label %6

5:                                                ; preds = %1
  br label %10

6:                                                ; preds = %1
  %7 = load i32, ptr %2, align 4, !tbaa !3
  %8 = sub nsw i32 %7, 6
  %9 = shl i32 1, %8
  br label %10

10:                                               ; preds = %6, %5
  %11 = phi i32 [ 1, %5 ], [ %9, %6 ]
  ret i32 %11
}

; Function Attrs: inlinehint nounwind uwtable
define internal void @If_CluCopy(ptr noundef %0, ptr noundef %1, i32 noundef %2) #3 {
  %4 = alloca ptr, align 8
  %5 = alloca ptr, align 8
  %6 = alloca i32, align 4
  %7 = alloca i32, align 4
  %8 = alloca i32, align 4
  store ptr %0, ptr %4, align 8, !tbaa !51
  store ptr %1, ptr %5, align 8, !tbaa !51
  store i32 %2, ptr %6, align 4, !tbaa !3
  call void @llvm.lifetime.start.p0(i64 4, ptr %7) #11
  call void @llvm.lifetime.start.p0(i64 4, ptr %8) #11
  %9 = load i32, ptr %6, align 4, !tbaa !3
  %10 = call i32 @If_CluWordNum(i32 noundef %9)
  store i32 %10, ptr %8, align 4, !tbaa !3
  store i32 0, ptr %7, align 4, !tbaa !3
  br label %11

11:                                               ; preds = %25, %3
  %12 = load i32, ptr %7, align 4, !tbaa !3
  %13 = load i32, ptr %8, align 4, !tbaa !3
  %14 = icmp slt i32 %12, %13
  br i1 %14, label %15, label %28

15:                                               ; preds = %11
  %16 = load ptr, ptr %5, align 8, !tbaa !51
  %17 = load i32, ptr %7, align 4, !tbaa !3
  %18 = sext i32 %17 to i64
  %19 = getelementptr inbounds i64, ptr %16, i64 %18
  %20 = load i64, ptr %19, align 8, !tbaa !79
  %21 = load ptr, ptr %4, align 8, !tbaa !51
  %22 = load i32, ptr %7, align 4, !tbaa !3
  %23 = sext i32 %22 to i64
  %24 = getelementptr inbounds i64, ptr %21, i64 %23
  store i64 %20, ptr %24, align 8, !tbaa !79
  br label %25

25:                                               ; preds = %15
  %26 = load i32, ptr %7, align 4, !tbaa !3
  %27 = add nsw i32 %26, 1
  store i32 %27, ptr %7, align 4, !tbaa !3
  br label %11, !llvm.loop !101

28:                                               ; preds = %11
  call void @llvm.lifetime.end.p0(i64 4, ptr %8) #11
  call void @llvm.lifetime.end.p0(i64 4, ptr %7) #11
  ret void
}

; Function Attrs: nounwind uwtable
define i64 @If_CluDeriveDisjoint(ptr noundef %0, i32 noundef %1, ptr noundef %2, ptr noundef %3, ptr noundef %4, ptr noundef %5) #0 {
  %7 = alloca ptr, align 8
  %8 = alloca i32, align 4
  %9 = alloca ptr, align 8
  %10 = alloca ptr, align 8
  %11 = alloca ptr, align 8
  %12 = alloca ptr, align 8
  %13 = alloca [3 x [256 x i64]], align 16
  %14 = alloca i32, align 4
  %15 = alloca i32, align 4
  %16 = alloca i32, align 4
  store ptr %0, ptr %7, align 8, !tbaa !51
  store i32 %1, ptr %8, align 4, !tbaa !3
  store ptr %2, ptr %9, align 8, !tbaa !21
  store ptr %3, ptr %10, align 8, !tbaa !21
  store ptr %4, ptr %11, align 8, !tbaa !106
  store ptr %5, ptr %12, align 8, !tbaa !106
  call void @llvm.lifetime.start.p0(i64 6144, ptr %13) #11
  call void @llvm.lifetime.start.p0(i64 4, ptr %14) #11
  call void @llvm.lifetime.start.p0(i64 4, ptr %15) #11
  call void @llvm.lifetime.start.p0(i64 4, ptr %16) #11
  %17 = load i32, ptr %8, align 4, !tbaa !3
  %18 = load ptr, ptr %11, align 8, !tbaa !106
  %19 = getelementptr inbounds nuw %struct.If_Grp_t_, ptr %18, i32 0, i32 0
  %20 = load i8, ptr %19, align 1, !tbaa !49
  %21 = sext i8 %20 to i32
  %22 = sub nsw i32 %17, %21
  store i32 %22, ptr %16, align 4, !tbaa !3
  %23 = load ptr, ptr %7, align 8, !tbaa !51
  %24 = load i32, ptr %8, align 4, !tbaa !3
  %25 = load ptr, ptr %11, align 8, !tbaa !106
  %26 = getelementptr inbounds nuw %struct.If_Grp_t_, ptr %25, i32 0, i32 0
  %27 = load i8, ptr %26, align 1, !tbaa !49
  %28 = sext i8 %27 to i32
  %29 = getelementptr inbounds [3 x [256 x i64]], ptr %13, i64 0, i64 0
  %30 = call i32 @If_CluCountCofs(ptr noundef %23, i32 noundef %24, i32 noundef %28, i32 noundef 0, ptr noundef %29)
  store i32 %30, ptr %15, align 4, !tbaa !3
  %31 = load i32, ptr %16, align 4, !tbaa !3
  %32 = icmp slt i32 %31, 6
  br i1 %32, label %33, label %47

33:                                               ; preds = %6
  %34 = getelementptr inbounds [3 x [256 x i64]], ptr %13, i64 0, i64 1
  %35 = getelementptr inbounds [256 x i64], ptr %34, i64 0, i64 0
  %36 = load i64, ptr %35, align 16, !tbaa !79
  %37 = load i32, ptr %16, align 4, !tbaa !3
  %38 = shl i32 1, %37
  %39 = zext i32 %38 to i64
  %40 = shl i64 %36, %39
  %41 = getelementptr inbounds [3 x [256 x i64]], ptr %13, i64 0, i64 0
  %42 = getelementptr inbounds [256 x i64], ptr %41, i64 0, i64 0
  %43 = load i64, ptr %42, align 16, !tbaa !79
  %44 = or i64 %40, %43
  %45 = load ptr, ptr %7, align 8, !tbaa !51
  %46 = getelementptr inbounds i64, ptr %45, i64 0
  store i64 %44, ptr %46, align 8, !tbaa !79
  br label %60

47:                                               ; preds = %6
  %48 = load ptr, ptr %7, align 8, !tbaa !51
  %49 = getelementptr inbounds [3 x [256 x i64]], ptr %13, i64 0, i64 0
  %50 = getelementptr inbounds [256 x i64], ptr %49, i64 0, i64 0
  %51 = load i32, ptr %16, align 4, !tbaa !3
  call void @If_CluCopy(ptr noundef %48, ptr noundef %50, i32 noundef %51)
  %52 = load ptr, ptr %7, align 8, !tbaa !51
  %53 = load i32, ptr %16, align 4, !tbaa !3
  %54 = call i32 @If_CluWordNum(i32 noundef %53)
  %55 = sext i32 %54 to i64
  %56 = getelementptr inbounds i64, ptr %52, i64 %55
  %57 = getelementptr inbounds [3 x [256 x i64]], ptr %13, i64 0, i64 1
  %58 = getelementptr inbounds [256 x i64], ptr %57, i64 0, i64 0
  %59 = load i32, ptr %16, align 4, !tbaa !3
  call void @If_CluCopy(ptr noundef %56, ptr noundef %58, i32 noundef %59)
  br label %60

60:                                               ; preds = %47, %33
  %61 = load ptr, ptr %12, align 8, !tbaa !106
  %62 = icmp ne ptr %61, null
  br i1 %62, label %63, label %98

63:                                               ; preds = %60
  %64 = load i32, ptr %16, align 4, !tbaa !3
  %65 = add nsw i32 %64, 1
  %66 = trunc i32 %65 to i8
  %67 = load ptr, ptr %12, align 8, !tbaa !106
  %68 = getelementptr inbounds nuw %struct.If_Grp_t_, ptr %67, i32 0, i32 0
  store i8 %66, ptr %68, align 1, !tbaa !49
  %69 = load ptr, ptr %12, align 8, !tbaa !106
  %70 = getelementptr inbounds nuw %struct.If_Grp_t_, ptr %69, i32 0, i32 1
  store i8 0, ptr %70, align 1, !tbaa !108
  store i32 0, ptr %14, align 4, !tbaa !3
  br label %71

71:                                               ; preds = %87, %63
  %72 = load i32, ptr %14, align 4, !tbaa !3
  %73 = load i32, ptr %16, align 4, !tbaa !3
  %74 = icmp slt i32 %72, %73
  br i1 %74, label %75, label %90

75:                                               ; preds = %71
  %76 = load ptr, ptr %10, align 8, !tbaa !21
  %77 = load i32, ptr %14, align 4, !tbaa !3
  %78 = sext i32 %77 to i64
  %79 = getelementptr inbounds i32, ptr %76, i64 %78
  %80 = load i32, ptr %79, align 4, !tbaa !3
  %81 = trunc i32 %80 to i8
  %82 = load ptr, ptr %12, align 8, !tbaa !106
  %83 = getelementptr inbounds nuw %struct.If_Grp_t_, ptr %82, i32 0, i32 2
  %84 = load i32, ptr %14, align 4, !tbaa !3
  %85 = sext i32 %84 to i64
  %86 = getelementptr inbounds [16 x i8], ptr %83, i64 0, i64 %85
  store i8 %81, ptr %86, align 1, !tbaa !46
  br label %87

87:                                               ; preds = %75
  %88 = load i32, ptr %14, align 4, !tbaa !3
  %89 = add nsw i32 %88, 1
  store i32 %89, ptr %14, align 4, !tbaa !3
  br label %71, !llvm.loop !153

90:                                               ; preds = %71
  %91 = load i32, ptr %8, align 4, !tbaa !3
  %92 = trunc i32 %91 to i8
  %93 = load ptr, ptr %12, align 8, !tbaa !106
  %94 = getelementptr inbounds nuw %struct.If_Grp_t_, ptr %93, i32 0, i32 2
  %95 = load i32, ptr %16, align 4, !tbaa !3
  %96 = sext i32 %95 to i64
  %97 = getelementptr inbounds [16 x i8], ptr %94, i64 0, i64 %96
  store i8 %92, ptr %97, align 1, !tbaa !46
  br label %98

98:                                               ; preds = %90, %60
  %99 = getelementptr inbounds [3 x [256 x i64]], ptr %13, i64 0, i64 2
  %100 = getelementptr inbounds [256 x i64], ptr %99, i64 0, i64 0
  %101 = load i64, ptr %100, align 16, !tbaa !79
  call void @llvm.lifetime.end.p0(i64 4, ptr %16) #11
  call void @llvm.lifetime.end.p0(i64 4, ptr %15) #11
  call void @llvm.lifetime.end.p0(i64 4, ptr %14) #11
  call void @llvm.lifetime.end.p0(i64 6144, ptr %13) #11
  ret i64 %101
}