; Function Attrs: nofree norecurse nosync nounwind memory(argmem: readwrite) uwtable
define i64 @If_CluDeriveDisjoint(ptr noundef captures(none) %0, i32 noundef %1, ptr noundef readnone captures(none) %2, ptr noundef readonly captures(none) %3, ptr noundef readonly captures(none) %4, ptr noundef writeonly %5) local_unnamed_addr #10 {
  %7 = alloca [3 x [256 x i64]], align 16
  call void @llvm.lifetime.start.p0(i64 6144, ptr nonnull %7) #22
  %8 = load i8, ptr %4, align 1, !tbaa !110
  %9 = sext i8 %8 to i32
  %10 = sub i32 %1, %9
  %11 = call i32 @If_CluCountCofs(ptr noundef %0, i32 noundef %1, i32 noundef %9, i32 noundef 0, ptr noundef nonnull %7)
  %12 = icmp slt i32 %10, 6
  br i1 %12, label %13, label %21

13:                                               ; preds = %6
  %14 = getelementptr inbounds nuw i8, ptr %7, i64 2048
  %15 = load i64, ptr %14, align 16, !tbaa !16
  %16 = shl nuw nsw i32 1, %10
  %17 = zext nneg i32 %16 to i64
  %18 = shl i64 %15, %17
  %19 = load i64, ptr %7, align 16, !tbaa !16
  %20 = or i64 %18, %19
  store i64 %20, ptr %0, align 8, !tbaa !16
  br label %If_CluCopy.exit34

21:                                               ; preds = %6
  %22 = add nsw i32 %10, -6
  %.not35 = icmp eq i32 %22, 31
  br i1 %.not35, label %If_CluCopy.exit34.thread, label %.lr.ph.preheader.i

.lr.ph.preheader.i:                               ; preds = %21
  %23 = shl nuw i32 1, %22
  %wide.trip.count.i = zext i32 %23 to i64
  %24 = shl nuw nsw i64 %wide.trip.count.i, 3
  call void @llvm.memcpy.p0.p0.i64(ptr noundef nonnull align 8 dereferenceable(1) %0, ptr noundef nonnull align 16 dereferenceable(1) %7, i64 %24, i1 false), !tbaa !16
  %25 = sext i32 %23 to i64
  %26 = getelementptr inbounds i64, ptr %0, i64 %25
  %27 = getelementptr inbounds nuw i8, ptr %7, i64 2048
  call void @llvm.memcpy.p0.p0.i64(ptr noundef nonnull align 8 dereferenceable(1) %26, ptr noundef nonnull align 16 dereferenceable(1) %27, i64 %24, i1 false), !tbaa !16
  br label %If_CluCopy.exit34

If_CluCopy.exit34:                                ; preds = %.lr.ph.preheader.i, %13
  %.not = icmp eq ptr %5, null
  br i1 %.not, label %46, label %31

If_CluCopy.exit34.thread:                         ; preds = %21
  %.not38 = icmp eq ptr %5, null
  br i1 %.not38, label %46, label %.thread

.thread:                                          ; preds = %If_CluCopy.exit34.thread
  %28 = trunc i32 %10 to i8
  %29 = add nuw nsw i8 %28, 1
  store i8 %29, ptr %5, align 1, !tbaa !110
  %30 = getelementptr inbounds nuw i8, ptr %5, i64 1
  store i8 0, ptr %30, align 1, !tbaa !112
  br label %.lr.ph

31:                                               ; preds = %If_CluCopy.exit34
  %32 = trunc i32 %10 to i8
  %33 = add i8 %32, 1
  store i8 %33, ptr %5, align 1, !tbaa !110
  %34 = getelementptr inbounds nuw i8, ptr %5, i64 1
  store i8 0, ptr %34, align 1, !tbaa !112
  %35 = icmp sgt i32 %10, 0
  br i1 %35, label %.lr.ph, label %._crit_edge

.lr.ph:                                           ; preds = %.thread, %31
  %36 = getelementptr inbounds nuw i8, ptr %5, i64 2
  %wide.trip.count = zext nneg i32 %10 to i64
  br label %37

37:                                               ; preds = %.lr.ph, %37
  %indvars.iv = phi i64 [ 0, %.lr.ph ], [ %indvars.iv.next, %37 ]
  %38 = getelementptr inbounds nuw i32, ptr %3, i64 %indvars.iv
  %39 = load i32, ptr %38, align 4, !tbaa !6
  %40 = trunc i32 %39 to i8
  %41 = getelementptr inbounds nuw [16 x i8], ptr %36, i64 0, i64 %indvars.iv
  store i8 %40, ptr %41, align 1, !tbaa !59
  %indvars.iv.next = add nuw nsw i64 %indvars.iv, 1
  %exitcond.not = icmp eq i64 %indvars.iv.next, %wide.trip.count
  br i1 %exitcond.not, label %._crit_edge, label %37, !llvm.loop !161

._crit_edge:                                      ; preds = %37, %31
  %42 = trunc i32 %1 to i8
  %43 = getelementptr inbounds nuw i8, ptr %5, i64 2
  %44 = sext i32 %10 to i64
  %45 = getelementptr inbounds [16 x i8], ptr %43, i64 0, i64 %44
  store i8 %42, ptr %45, align 1, !tbaa !59
  br label %46

46:                                               ; preds = %If_CluCopy.exit34.thread, %._crit_edge, %If_CluCopy.exit34
  %47 = getelementptr inbounds nuw i8, ptr %7, i64 4096
  %48 = load i64, ptr %47, align 16, !tbaa !16
  call void @llvm.lifetime.end.p0(i64 6144, ptr nonnull %7) #22
  ret i64 %48
}